; Function Attrs: mustprogress nounwind uwtable
define dso_local void @_ZN4llvm15WindowScheduler16getSearchIndexesEjj(ptr dead_on_unwind noalias writable sret(%"class.llvm::SmallVector.169") align 8 %0, ptr noundef nonnull readonly align 8 captures(none) dereferenceable(6436) %1, i32 noundef %2, i32 noundef %3) unnamed_addr #0 align 2 {
  %5 = getelementptr inbounds nuw i8, ptr %1, i64 6420
  %6 = load i32, ptr %5, align 4
  %.fr15 = freeze i32 %6
  %7 = mul i32 %.fr15, %3
  %8 = udiv i32 %7, 100
  %9 = add i32 %2, -1
  %or.cond.not = icmp ult i32 %9, %8
  br i1 %or.cond.not, label %10, label %12

10:                                               ; preds = %4
  %11 = udiv i32 %8, %2
  br label %12

12:                                               ; preds = %4, %10
  %13 = phi i32 [ %11, %10 ], [ 1, %4 ]
  %14 = getelementptr inbounds nuw i8, ptr %0, i64 16
  tail call void @_ZN4llvm15SmallVectorBaseIjEC2EPvm(ptr noundef nonnull align 8 dereferenceable(64) %0, ptr noundef nonnull %14, i64 noundef 12) #21
  %.not = icmp ult i32 %7, 100
  br i1 %.not, label %._crit_edge, label %.lr.ph

.lr.ph:                                           ; preds = %12, %_ZN4llvm23SmallVectorTemplateBaseIjLb1EE9push_backEj.exit
  %.016 = phi i32 [ %24, %_ZN4llvm23SmallVectorTemplateBaseIjLb1EE9push_backEj.exit ], [ 0, %12 ]
  %15 = tail call noundef i64 @_ZNK4llvm15SmallVectorBaseIjE4sizeEv(ptr noundef nonnull align 8 dereferenceable(16) %0) #21
  %16 = add i64 %15, 1
  %17 = tail call noundef i64 @_ZNK4llvm15SmallVectorBaseIjE8capacityEv(ptr noundef nonnull align 8 dereferenceable(16) %0) #21
  %.not.i.i.i = icmp ugt i64 %16, %17
  br i1 %.not.i.i.i, label %18, label %_ZN4llvm23SmallVectorTemplateBaseIjLb1EE9push_backEj.exit

18:                                               ; preds = %.lr.ph
  tail call void @_ZN4llvm15SmallVectorBaseIjE8grow_podEPvmm(ptr noundef nonnull align 8 dereferenceable(16) %0, ptr noundef nonnull %14, i64 noundef %16, i64 noundef 4) #21
  br label %_ZN4llvm23SmallVectorTemplateBaseIjLb1EE9push_backEj.exit

_ZN4llvm23SmallVectorTemplateBaseIjLb1EE9push_backEj.exit: ; preds = %.lr.ph, %18
  %19 = load ptr, ptr %0, align 8
  %20 = tail call noundef i64 @_ZNK4llvm15SmallVectorBaseIjE4sizeEv(ptr noundef nonnull align 8 dereferenceable(16) %0) #21
  %21 = getelementptr inbounds i32, ptr %19, i64 %20
  store i32 %.016, ptr %21, align 1
  %22 = tail call noundef i64 @_ZNK4llvm15SmallVectorBaseIjE4sizeEv(ptr noundef nonnull align 8 dereferenceable(16) %0) #21
  %23 = add i64 %22, 1
  tail call void @_ZN4llvm15SmallVectorBaseIjE8set_sizeEm(ptr noundef nonnull align 8 dereferenceable(16) %0, i64 noundef %23) #21
  %24 = add i32 %.016, %13
  %25 = icmp ult i32 %24, %8
  br i1 %25, label %.lr.ph, label %._crit_edge, !llvm.loop !41

._crit_edge:                                      ; preds = %_ZN4llvm23SmallVectorTemplateBaseIjLb1EE9push_backEj.exit, %12
  ret void
}